target datalayout = "e-m:e-p270:32:32-p271:32:32-p272:64:64-i64:64-i128:128-f80:128-n8:16:32:64-S128"
target triple = "x86_64-pc-linux-gnu"

%"class.realclosure::manager" = type { ptr }
%"class.realclosure::num" = type { ptr }
%"class.realclosure::save_interval_ctx" = type { ptr }

; Function Attrs: mustprogress uwtable
define linkonce_odr hidden void @_ZNK11realclosure7manager3imp7displayERSoRKNS_3numEbb(ptr noundef nonnull align 8 dereferenceable(1497) %0, ptr noundef nonnull align 8 dereferenceable(8) %1, ptr noundef nonnull align 8 dereferenceable(8) %2, i1 noundef zeroext %3, i1 noundef zeroext %4) #6 comdat align 2 {
  %6 = alloca ptr, align 8
  %7 = alloca ptr, align 8
  %8 = alloca ptr, align 8
  %9 = alloca i8, align 1
  %10 = alloca i8, align 1
  store ptr %0, ptr %6, align 8, !tbaa !28
  store ptr %1, ptr %7, align 8, !tbaa !106
  store ptr %2, ptr %8, align 8, !tbaa !76
  %11 = zext i1 %3 to i8
  store i8 %11, ptr %9, align 1, !tbaa !108
  %12 = zext i1 %4 to i8
  store i8 %12, ptr %10, align 1, !tbaa !108
  %13 = load ptr, ptr %6, align 8
  %14 = load i8, ptr %9, align 1, !tbaa !108, !range !109, !noundef !110
  %15 = trunc i8 %14 to i1
  br i1 %15, label %16, label %23

16:                                               ; preds = %5
  %17 = load ptr, ptr %7, align 8, !tbaa !106
  %18 = load ptr, ptr %8, align 8, !tbaa !76
  %19 = getelementptr inbounds nuw %"class.realclosure::num", ptr %18, i32 0, i32 0
  %20 = load ptr, ptr %19, align 8, !tbaa !78
  %21 = load i8, ptr %10, align 1, !tbaa !108, !range !109, !noundef !110
  %22 = trunc i8 %21 to i1
  call void @_ZNK11realclosure7manager3imp15display_compactERSoPNS_5valueEb(ptr noundef nonnull align 8 dereferenceable(1497) %13, ptr noundef nonnull align 8 dereferenceable(8) %17, ptr noundef %20, i1 noundef zeroext %22)
  br label %30

23:                                               ; preds = %5
  %24 = load ptr, ptr %7, align 8, !tbaa !106
  %25 = load ptr, ptr %8, align 8, !tbaa !76
  %26 = getelementptr inbounds nuw %"class.realclosure::num", ptr %25, i32 0, i32 0
  %27 = load ptr, ptr %26, align 8, !tbaa !78
  %28 = load i8, ptr %10, align 1, !tbaa !108, !range !109, !noundef !110
  %29 = trunc i8 %28 to i1
  call void @_ZNK11realclosure7manager3imp7displayERSoPNS_5valueEbb(ptr noundef nonnull align 8 dereferenceable(1497) %13, ptr noundef nonnull align 8 dereferenceable(8) %24, ptr noundef %27, i1 noundef zeroext false, i1 noundef zeroext %29)
  br label %30

30:                                               ; preds = %23, %16
  ret void
}

; Function Attrs: mustprogress nounwind uwtable
define linkonce_odr hidden void @_ZN11realclosure17save_interval_ctxC2EPKNS_7managerE(ptr noundef nonnull align 8 dereferenceable(8) %0, ptr noundef %1) unnamed_addr #4 comdat align 2 {
  %3 = alloca ptr, align 8
  %4 = alloca ptr, align 8
  store ptr %0, ptr %3, align 8, !tbaa !85
  store ptr %1, ptr %4, align 8, !tbaa !15
  %5 = load ptr, ptr %3, align 8
  %6 = getelementptr inbounds nuw %"class.realclosure::save_interval_ctx", ptr %5, i32 0, i32 0
  %7 = load ptr, ptr %4, align 8, !tbaa !15
  %8 = getelementptr inbounds nuw %"class.realclosure::manager", ptr %7, i32 0, i32 0
  %9 = load ptr, ptr %8, align 8, !tbaa !25
  store ptr %9, ptr %6, align 8, !tbaa !87
  ret void
}

; Function Attrs: mustprogress uwtable
define hidden void @_ZNK11realclosure7manager7displayERSoRKNS_3numEbb(ptr noundef nonnull align 8 dereferenceable(8) %0, ptr noundef nonnull align 8 dereferenceable(8) %1, ptr noundef nonnull align 8 dereferenceable(8) %2, i1 noundef zeroext %3, i1 noundef zeroext %4) #6 align 2 personality ptr @__gxx_personality_v0 {
  %6 = alloca ptr, align 8
  %7 = alloca ptr, align 8
  %8 = alloca ptr, align 8
  %9 = alloca i8, align 1
  %10 = alloca i8, align 1
  %11 = alloca %"class.realclosure::save_interval_ctx", align 8
  %12 = alloca ptr, align 8
  %13 = alloca i32, align 4
  store ptr %0, ptr %6, align 8, !tbaa !15
  store ptr %1, ptr %7, align 8, !tbaa !106
  store ptr %2, ptr %8, align 8, !tbaa !76
  %14 = zext i1 %3 to i8
  store i8 %14, ptr %9, align 1, !tbaa !108
  %15 = zext i1 %4 to i8
  store i8 %15, ptr %10, align 1, !tbaa !108
  %16 = load ptr, ptr %6, align 8
  call void @llvm.lifetime.start.p0(i64 8, ptr %11) #3
  call void @_ZN11realclosure17save_interval_ctxC2EPKNS_7managerE(ptr noundef nonnull align 8 dereferenceable(8) %11, ptr noundef %16)
  %17 = getelementptr inbounds nuw %"class.realclosure::manager", ptr %16, i32 0, i32 0
  %18 = load ptr, ptr %17, align 8, !tbaa !25
  %19 = load ptr, ptr %7, align 8, !tbaa !106
  %20 = load ptr, ptr %8, align 8, !tbaa !76
  %21 = load i8, ptr %9, align 1, !tbaa !108, !range !109, !noundef !110
  %22 = trunc i8 %21 to i1
  %23 = load i8, ptr %10, align 1, !tbaa !108, !range !109, !noundef !110
  %24 = trunc i8 %23 to i1
  invoke void @_ZNK11realclosure7manager3imp7displayERSoRKNS_3numEbb(ptr noundef nonnull align 8 dereferenceable(1497) %18, ptr noundef nonnull align 8 dereferenceable(8) %19, ptr noundef nonnull align 8 dereferenceable(8) %20, i1 noundef zeroext %22, i1 noundef zeroext %24)
          to label %25 unwind label %26

25:                                               ; preds = %5
  call void @_ZN11realclosure17save_interval_ctxD2Ev(ptr noundef nonnull align 8 dereferenceable(8) %11) #3
  call void @llvm.lifetime.end.p0(i64 8, ptr %11) #3
  ret void

26:                                               ; preds = %5
  %27 = landingpad { ptr, i32 }
          cleanup
  %28 = extractvalue { ptr, i32 } %27, 0
  store ptr %28, ptr %12, align 8
  %29 = extractvalue { ptr, i32 } %27, 1
  store i32 %29, ptr %13, align 4
  call void @_ZN11realclosure17save_interval_ctxD2Ev(ptr noundef nonnull align 8 dereferenceable(8) %11) #3
  call void @llvm.lifetime.end.p0(i64 8, ptr %11) #3
  br label %30

30:                                               ; preds = %26
  %31 = load ptr, ptr %12, align 8
  %32 = load i32, ptr %13, align 4
  %33 = insertvalue { ptr, i32 } poison, ptr %31, 0
  %34 = insertvalue { ptr, i32 } %33, i32 %32, 1
  resume { ptr, i32 } %34
}