; Function Attrs: mustprogress uwtable
define hidden void @_ZNK11realclosure7manager7displayERSoRKNS_3numEbb(ptr noundef nonnull readonly align 8 captures(none) dereferenceable(8) %0, ptr noundef nonnull align 8 dereferenceable(8) %1, ptr noundef nonnull readonly align 8 captures(none) dereferenceable(8) %2, i1 noundef zeroext %3, i1 noundef zeroext %4) local_unnamed_addr #5 align 2 personality ptr @__gxx_personality_v0 {
  %6 = alloca %"class.realclosure::save_interval_ctx", align 8
  call void @llvm.lifetime.start.p0(i64 8, ptr nonnull %6) #24
  %7 = load ptr, ptr %0, align 8, !tbaa !11
  store ptr %7, ptr %6, align 8, !tbaa !91
  %8 = load ptr, ptr %2, align 8, !tbaa !84
  br i1 %3, label %9, label %10

9:                                                ; preds = %5
  invoke void @_ZNK11realclosure7manager3imp15display_compactERSoPNS_5valueEb(ptr noundef nonnull align 8 dereferenceable(1497) %7, ptr noundef nonnull align 8 dereferenceable(8) %1, ptr noundef %8, i1 noundef zeroext %4)
          to label %_ZNK11realclosure7manager3imp7displayERSoRKNS_3numEbb.exit unwind label %16

10:                                               ; preds = %5
  invoke void @_ZNK11realclosure7manager3imp7displayERSoPNS_5valueEbb(ptr noundef nonnull align 8 dereferenceable(1497) %7, ptr noundef nonnull align 8 dereferenceable(8) %1, ptr noundef %8, i1 noundef zeroext false, i1 noundef zeroext %4)
          to label %_ZNK11realclosure7manager3imp7displayERSoRKNS_3numEbb.exit unwind label %16

_ZNK11realclosure7manager3imp7displayERSoRKNS_3numEbb.exit: ; preds = %9, %10
  %11 = getelementptr inbounds nuw i8, ptr %7, i64 1392
  invoke void @_ZN11realclosure7manager3imp23restore_saved_intervalsINS_5valueEEEvR10ptr_vectorIT_E(ptr noundef nonnull align 8 dereferenceable(1497) %7, ptr noundef nonnull align 8 dereferenceable(8) %11)
          to label %.noexc.i unwind label %13

.noexc.i:                                         ; preds = %_ZNK11realclosure7manager3imp7displayERSoRKNS_3numEbb.exit
  %12 = getelementptr inbounds nuw i8, ptr %7, i64 1400
  invoke void @_ZN11realclosure7manager3imp23restore_saved_intervalsINS_9extensionEEEvR10ptr_vectorIT_E(ptr noundef nonnull align 8 dereferenceable(1497) %7, ptr noundef nonnull align 8 dereferenceable(8) %12)
          to label %_ZN11realclosure17save_interval_ctxD2Ev.exit unwind label %13

13:                                               ; preds = %.noexc.i, %_ZNK11realclosure7manager3imp7displayERSoRKNS_3numEbb.exit
  %14 = landingpad { ptr, i32 }
          catch ptr null
  %15 = extractvalue { ptr, i32 } %14, 0
  tail call void @__clang_call_terminate(ptr %15) #25
  unreachable

_ZN11realclosure17save_interval_ctxD2Ev.exit:     ; preds = %.noexc.i
  call void @llvm.lifetime.end.p0(i64 8, ptr nonnull %6) #24
  ret void

16:                                               ; preds = %10, %9
  %17 = landingpad { ptr, i32 }
          cleanup
  call void @_ZN11realclosure17save_interval_ctxD2Ev(ptr noundef nonnull align 8 dereferenceable(8) %6) #24
  call void @llvm.lifetime.end.p0(i64 8, ptr nonnull %6) #24
  resume { ptr, i32 } %17
}